target datalayout = "e-m:e-p270:32:32-p271:32:32-p272:64:64-i64:64-i128:128-f80:128-n8:16:32:64-S128"
target triple = "x86_64-pc-linux-gnu"

; Function Attrs: nounwind uwtable
define internal double @trc_arib_std_b67(double noundef %0) #0 {
  %2 = alloca double, align 8
  %3 = alloca double, align 8
  %4 = alloca double, align 8
  %5 = alloca double, align 8
  store double %0, ptr %2, align 8, !tbaa !27
  call void @llvm.lifetime.start.p0(i64 8, ptr %3) #7
  store double 0x3FC6E3FE014D320D, ptr %3, align 8, !tbaa !27
  call void @llvm.lifetime.start.p0(i64 8, ptr %4) #7
  store double 0x3FD23803FD659BE6, ptr %4, align 8, !tbaa !27
  call void @llvm.lifetime.start.p0(i64 8, ptr %5) #7
  store double 0x3FE1EAC9E840F18D, ptr %5, align 8, !tbaa !27
  %6 = load double, ptr %2, align 8, !tbaa !27
  %7 = fcmp nsz ogt double 0.000000e+00, %6
  br i1 %7, label %8, label %9

8:                                                ; preds = %1
  br label %23

9:                                                ; preds = %1
  %10 = load double, ptr %2, align 8, !tbaa !27
  %11 = fcmp nsz ole double %10, 0x3FB5555555555555
  br i1 %11, label %12, label %16

12:                                               ; preds = %9
  %13 = load double, ptr %2, align 8, !tbaa !27
  %14 = fmul nsz double 3.000000e+00, %13
  %15 = call nsz double @llvm.sqrt.f64(double %14)
  br label %21

16:                                               ; preds = %9
  %17 = load double, ptr %2, align 8, !tbaa !27
  %18 = call nsz double @llvm.fmuladd.f64(double 1.200000e+01, double %17, double 0xBFD23803FD659BE6)
  %19 = call nsz double @llvm.log.f64(double %18)
  %20 = call nsz double @llvm.fmuladd.f64(double 0x3FC6E3FE014D320D, double %19, double 0x3FE1EAC9E840F18D)
  br label %21

21:                                               ; preds = %16, %12
  %22 = phi nsz double [ %15, %12 ], [ %20, %16 ]
  br label %23

23:                                               ; preds = %21, %8
  %24 = phi nsz double [ 0.000000e+00, %8 ], [ %22, %21 ]
  call void @llvm.lifetime.end.p0(i64 8, ptr %5) #7
  call void @llvm.lifetime.end.p0(i64 8, ptr %4) #7
  call void @llvm.lifetime.end.p0(i64 8, ptr %3) #7
  ret double %24
}