; Function Attrs: mustprogress nofree norecurse nosync nounwind willreturn memory(none) uwtable
define internal noundef double @trc_arib_std_b67(double noundef %0) #0 {
  %2 = fcmp nsz olt double %0, 0.000000e+00
  br i1 %2, label %12, label %3

3:                                                ; preds = %1
  %4 = fcmp nsz ugt double %0, 0x3FB5555555555555
  br i1 %4, label %8, label %5

5:                                                ; preds = %3
  %6 = fmul nsz double %0, 3.000000e+00
  %7 = tail call nsz double @llvm.sqrt.f64(double %6)
  br label %12

8:                                                ; preds = %3
  %9 = tail call nsz double @llvm.fmuladd.f64(double %0, double 1.200000e+01, double 0xBFD23803FD659BE6)
  %10 = tail call nsz double @llvm.log.f64(double %9)
  %11 = tail call nsz double @llvm.fmuladd.f64(double %10, double 0x3FC6E3FE014D320D, double 0x3FE1EAC9E840F18D)
  br label %12

12:                                               ; preds = %5, %8, %1
  %13 = phi nsz double [ 0.000000e+00, %1 ], [ %7, %5 ], [ %11, %8 ]
  ret double %13
}